target datalayout = "e-m:e-p270:32:32-p271:32:32-p272:64:64-i64:64-i128:128-f80:128-n8:16:32:64-S128"
target triple = "x86_64-pc-linux-gnu"

%struct.XLogReaderState = type { %struct.XLogReaderRoutine, i64, ptr, i64, i64, i64, i64, i64, i64, i64, i64, ptr, ptr, i64, i8, ptr, ptr, ptr, ptr, ptr, i32, %struct.WALSegmentContext, %struct.WALOpenSegment, i32, i64, i32, i64, i32, i64, i32, ptr, i32, ptr, i8, i8 }
%struct.XLogReaderRoutine = type { ptr, ptr, ptr }
%struct.WALSegmentContext = type { [1024 x i8], i32 }
%struct.WALOpenSegment = type { i32, i64, i32 }
%struct.DecodedXLogRecord = type { i64, i8, ptr, i64, i64, %struct.XLogRecord, i16, i32, ptr, i32, i32, [0 x %struct.DecodedBkpBlock] }
%struct.XLogRecord = type { i32, i32, i64, i8, i8, i32 }
%struct.DecodedBkpBlock = type { i8, %struct.RelFileLocator, i32, i32, i32, i8, i8, i8, ptr, i16, i16, i16, i8, i8, ptr, i16, i16 }
%struct.RelFileLocator = type { i32, i32, i32 }
%struct.xl_btree_insert = type { i16 }
%struct.PageHeaderData = type { %struct.PageXLogRecPtr, i16, i16, i16, i16, i16, i16, i32, [0 x %struct.ItemIdData] }
%struct.PageXLogRecPtr = type { i32, i32 }
%struct.ItemIdData = type { i32 }
%struct.BTPageOpaqueData = type { i32, i32, i32, i16, i16 }
%struct.IndexTupleData = type { %struct.ItemPointerData, i16 }
%struct.ItemPointerData = type { %struct.BlockIdData, i16 }
%struct.BlockIdData = type { i16, i16 }

@.str.1 = private unnamed_addr constant [10 x i8] c"nbtxlog.c\00", align 1
@.str.3 = private unnamed_addr constant [23 x i8] c"failed to add new item\00", align 1
@__func__.btree_xlog_insert = private unnamed_addr constant [18 x i8] c"btree_xlog_insert\00", align 1
@.str.4 = private unnamed_addr constant [37 x i8] c"failed to add posting split new item\00", align 1
@LocalBufferBlockPointers = external global ptr, align 8
@BufferBlocks = external global ptr, align 8

; Function Attrs: inlinehint nounwind uwtable
define internal ptr @BufferGetBlock(i32 noundef %0) #2 {
  %2 = alloca ptr, align 8
  %3 = alloca i32, align 4
  store i32 %0, ptr %3, align 4
  %4 = load i32, ptr %3, align 4
  %5 = icmp slt i32 %4, 0
  br i1 %5, label %6, label %14

6:                                                ; preds = %1
  %7 = load ptr, ptr @LocalBufferBlockPointers, align 8
  %8 = load i32, ptr %3, align 4
  %9 = sub i32 0, %8
  %10 = sub i32 %9, 1
  %11 = sext i32 %10 to i64
  %12 = getelementptr inbounds ptr, ptr %7, i64 %11
  %13 = load ptr, ptr %12, align 8
  store ptr %13, ptr %2, align 8
  br label %21

14:                                               ; preds = %1
  %15 = load ptr, ptr @BufferBlocks, align 8
  %16 = load i32, ptr %3, align 4
  %17 = sub i32 %16, 1
  %18 = sext i32 %17 to i64
  %19 = mul i64 %18, 8192
  %20 = getelementptr inbounds nuw i8, ptr %15, i64 %19
  store ptr %20, ptr %2, align 8
  br label %21

21:                                               ; preds = %14, %6
  %22 = load ptr, ptr %2, align 8
  ret ptr %22
}

; Function Attrs: inlinehint nounwind uwtable
define internal void @PageValidateSpecialPointer(ptr noundef %0) #2 {
  %2 = alloca ptr, align 8
  store ptr %0, ptr %2, align 8
  ret void
}

; Function Attrs: inlinehint nounwind uwtable
define internal zeroext i1 @BufferIsValid(i32 noundef %0) #2 {
  %2 = alloca i32, align 4
  store i32 %0, ptr %2, align 4
  %3 = load i32, ptr %2, align 4
  %4 = icmp ne i32 %3, 0
  ret i1 %4
}

; Function Attrs: inlinehint nounwind uwtable
define internal void @PageSetLSN(ptr noundef %0, i64 noundef %1) #2 {
  %3 = alloca ptr, align 8
  %4 = alloca i64, align 8
  store ptr %0, ptr %3, align 8
  store i64 %1, ptr %4, align 8
  %5 = load i64, ptr %4, align 8
  %6 = lshr i64 %5, 32
  %7 = trunc i64 %6 to i32
  %8 = load ptr, ptr %3, align 8
  %9 = getelementptr inbounds nuw %struct.PageHeaderData, ptr %8, i32 0, i32 0
  %10 = getelementptr inbounds nuw %struct.PageXLogRecPtr, ptr %9, i32 0, i32 0
  store i32 %7, ptr %10, align 4
  %11 = load i64, ptr %4, align 8
  %12 = trunc i64 %11 to i32
  %13 = load ptr, ptr %3, align 8
  %14 = getelementptr inbounds nuw %struct.PageHeaderData, ptr %13, i32 0, i32 0
  %15 = getelementptr inbounds nuw %struct.PageXLogRecPtr, ptr %14, i32 0, i32 1
  store i32 %12, ptr %15, align 4
  ret void
}

; Function Attrs: inlinehint nounwind uwtable
define internal i64 @IndexTupleSize(ptr noundef %0) #2 {
  %2 = alloca ptr, align 8
  store ptr %0, ptr %2, align 8
  %3 = load ptr, ptr %2, align 8
  %4 = getelementptr inbounds nuw %struct.IndexTupleData, ptr %3, i32 0, i32 1
  %5 = load i16, ptr %4, align 2
  %6 = zext i16 %5 to i32
  %7 = and i32 %6, 8191
  %8 = sext i32 %7 to i64
  ret i64 %8
}

; Function Attrs: inlinehint nounwind uwtable
define internal ptr @PageGetItem(ptr noundef %0, ptr noundef %1) #2 {
  %3 = alloca ptr, align 8
  %4 = alloca ptr, align 8
  store ptr %0, ptr %3, align 8
  store ptr %1, ptr %4, align 8
  %5 = load ptr, ptr %3, align 8
  %6 = load ptr, ptr %4, align 8
  %7 = load i32, ptr %6, align 4
  %8 = and i32 %7, 32767
  %9 = sext i32 %8 to i64
  %10 = getelementptr inbounds i8, ptr %5, i64 %9
  ret ptr %10
}

; Function Attrs: inlinehint nounwind uwtable
define internal ptr @PageGetItemId(ptr noundef %0, i16 noundef zeroext %1) #2 {
  %3 = alloca ptr, align 8
  %4 = alloca i16, align 2
  store ptr %0, ptr %3, align 8
  store i16 %1, ptr %4, align 2
  %5 = load ptr, ptr %3, align 8
  %6 = getelementptr inbounds nuw %struct.PageHeaderData, ptr %5, i32 0, i32 8
  %7 = load i16, ptr %4, align 2
  %8 = zext i16 %7 to i32
  %9 = sub i32 %8, 1
  %10 = sext i32 %9 to i64
  %11 = getelementptr inbounds [0 x %struct.ItemIdData], ptr %6, i64 0, i64 %10
  ret ptr %11
}

; Function Attrs: inlinehint nounwind uwtable
define internal ptr @BufferGetPage(i32 noundef %0) #2 {
  %2 = alloca i32, align 4
  store i32 %0, ptr %2, align 4
  %3 = load i32, ptr %2, align 4
  %4 = call ptr @BufferGetBlock(i32 noundef %3)
  ret ptr %4
}

; Function Attrs: nounwind uwtable
define internal void @_bt_clear_incomplete_split(ptr noundef %0, i8 noundef zeroext %1) #0 {
  %3 = alloca ptr, align 8
  %4 = alloca i8, align 1
  %5 = alloca i64, align 8
  %6 = alloca i32, align 4
  %7 = alloca ptr, align 8
  %8 = alloca ptr, align 8
  store ptr %0, ptr %3, align 8
  store i8 %1, ptr %4, align 1
  call void @llvm.lifetime.start.p0(i64 8, ptr %5) #7
  %9 = load ptr, ptr %3, align 8
  %10 = getelementptr inbounds nuw %struct.XLogReaderState, ptr %9, i32 0, i32 4
  %11 = load i64, ptr %10, align 8
  store i64 %11, ptr %5, align 8
  call void @llvm.lifetime.start.p0(i64 4, ptr %6) #7
  %12 = load ptr, ptr %3, align 8
  %13 = load i8, ptr %4, align 1
  %14 = call i32 @XLogReadBufferForRedo(ptr noundef %12, i8 noundef zeroext %13, ptr noundef %6)
  %15 = icmp eq i32 %14, 0
  br i1 %15, label %16, label %36

16:                                               ; preds = %2
  call void @llvm.lifetime.start.p0(i64 8, ptr %7) #7
  %17 = load i32, ptr %6, align 4
  %18 = call ptr @BufferGetPage(i32 noundef %17)
  store ptr %18, ptr %7, align 8
  call void @llvm.lifetime.start.p0(i64 8, ptr %8) #7
  %19 = load ptr, ptr %7, align 8
  call void @PageValidateSpecialPointer(ptr noundef %19)
  %20 = load ptr, ptr %7, align 8
  %21 = load ptr, ptr %7, align 8
  %22 = getelementptr inbounds nuw %struct.PageHeaderData, ptr %21, i32 0, i32 5
  %23 = load i16, ptr %22, align 4
  %24 = zext i16 %23 to i32
  %25 = sext i32 %24 to i64
  %26 = getelementptr inbounds i8, ptr %20, i64 %25
  store ptr %26, ptr %8, align 8
  %27 = load ptr, ptr %8, align 8
  %28 = getelementptr inbounds nuw %struct.BTPageOpaqueData, ptr %27, i32 0, i32 3
  %29 = load i16, ptr %28, align 4
  %30 = zext i16 %29 to i32
  %31 = and i32 %30, -129
  %32 = trunc i32 %31 to i16
  store i16 %32, ptr %28, align 4
  %33 = load ptr, ptr %7, align 8
  %34 = load i64, ptr %5, align 8
  call void @PageSetLSN(ptr noundef %33, i64 noundef %34)
  %35 = load i32, ptr %6, align 4
  call void @MarkBufferDirty(i32 noundef %35)
  call void @llvm.lifetime.end.p0(i64 8, ptr %8) #7
  call void @llvm.lifetime.end.p0(i64 8, ptr %7) #7
  br label %36

36:                                               ; preds = %16, %2
  %37 = load i32, ptr %6, align 4
  %38 = call zeroext i1 @BufferIsValid(i32 noundef %37)
  br i1 %38, label %39, label %41

39:                                               ; preds = %36
  %40 = load i32, ptr %6, align 4
  call void @UnlockReleaseBuffer(i32 noundef %40)
  br label %41

41:                                               ; preds = %39, %36
  call void @llvm.lifetime.end.p0(i64 4, ptr %6) #7
  call void @llvm.lifetime.end.p0(i64 8, ptr %5) #7
  ret void
}

; Function Attrs: nounwind uwtable
define internal void @btree_xlog_insert(i1 noundef zeroext %0, i1 noundef zeroext %1, i1 noundef zeroext %2, ptr noundef %3) #0 {
  %5 = alloca i8, align 1
  %6 = alloca i8, align 1
  %7 = alloca i8, align 1
  %8 = alloca ptr, align 8
  %9 = alloca i64, align 8
  %10 = alloca ptr, align 8
  %11 = alloca i32, align 4
  %12 = alloca ptr, align 8
  %13 = alloca i64, align 8
  %14 = alloca ptr, align 8
  %15 = alloca ptr, align 8
  %16 = alloca ptr, align 8
  %17 = alloca ptr, align 8
  %18 = alloca ptr, align 8
  %19 = alloca i16, align 2
  %20 = zext i1 %0 to i8
  store i8 %20, ptr %5, align 1
  %21 = zext i1 %1 to i8
  store i8 %21, ptr %6, align 1
  %22 = zext i1 %2 to i8
  store i8 %22, ptr %7, align 1
  store ptr %3, ptr %8, align 8
  call void @llvm.lifetime.start.p0(i64 8, ptr %9) #7
  %23 = load ptr, ptr %8, align 8
  %24 = getelementptr inbounds nuw %struct.XLogReaderState, ptr %23, i32 0, i32 4
  %25 = load i64, ptr %24, align 8
  store i64 %25, ptr %9, align 8
  call void @llvm.lifetime.start.p0(i64 8, ptr %10) #7
  %26 = load ptr, ptr %8, align 8
  %27 = getelementptr inbounds nuw %struct.XLogReaderState, ptr %26, i32 0, i32 11
  %28 = load ptr, ptr %27, align 8
  %29 = getelementptr inbounds nuw %struct.DecodedXLogRecord, ptr %28, i32 0, i32 8
  %30 = load ptr, ptr %29, align 8
  store ptr %30, ptr %10, align 8
  call void @llvm.lifetime.start.p0(i64 4, ptr %11) #7
  call void @llvm.lifetime.start.p0(i64 8, ptr %12) #7
  %31 = load i8, ptr %5, align 1, !range !4, !noundef !5
  %32 = trunc i8 %31 to i1
  br i1 %32, label %35, label %33

33:                                               ; preds = %4
  %34 = load ptr, ptr %8, align 8
  call void @_bt_clear_incomplete_split(ptr noundef %34, i8 noundef zeroext 1)
  br label %35

35:                                               ; preds = %33, %4
  %36 = load ptr, ptr %8, align 8
  %37 = call i32 @XLogReadBufferForRedo(ptr noundef %36, i8 noundef zeroext 0, ptr noundef %11)
  %38 = icmp eq i32 %37, 0
  br i1 %38, label %39, label %124

39:                                               ; preds = %35
  call void @llvm.lifetime.start.p0(i64 8, ptr %13) #7
  call void @llvm.lifetime.start.p0(i64 8, ptr %14) #7
  %40 = load ptr, ptr %8, align 8
  %41 = call ptr @XLogRecGetBlockData(ptr noundef %40, i8 noundef zeroext 0, ptr noundef %13)
  store ptr %41, ptr %14, align 8
  %42 = load i32, ptr %11, align 4
  %43 = call ptr @BufferGetPage(i32 noundef %42)
  store ptr %43, ptr %12, align 8
  %44 = load i8, ptr %7, align 1, !range !4, !noundef !5
  %45 = trunc i8 %44 to i1
  br i1 %45, label %68, label %46

46:                                               ; preds = %39
  %47 = load ptr, ptr %12, align 8
  %48 = load ptr, ptr %14, align 8
  %49 = load i64, ptr %13, align 8
  %50 = load ptr, ptr %10, align 8
  %51 = getelementptr inbounds nuw %struct.xl_btree_insert, ptr %50, i32 0, i32 0
  %52 = load i16, ptr %51, align 2
  %53 = call zeroext i16 @PageAddItemExtended(ptr noundef %47, ptr noundef %48, i64 noundef %49, i16 noundef zeroext %52, i32 noundef 0)
  %54 = zext i16 %53 to i32
  %55 = icmp eq i32 %54, 0
  br i1 %55, label %56, label %67

56:                                               ; preds = %46
  br label %57

57:                                               ; preds = %56
  br i1 true, label %58, label %60

58:                                               ; preds = %57
  %59 = call zeroext i1 @errstart_cold(i32 noundef 23, ptr noundef null) #8
  br i1 %59, label %62, label %64

60:                                               ; preds = %57
  %61 = call zeroext i1 @errstart(i32 noundef 23, ptr noundef null)
  br i1 %61, label %62, label %64

62:                                               ; preds = %60, %58
  %63 = call i32 (ptr, ...) @errmsg_internal(ptr noundef @.str.3)
  call void @errfinish(ptr noundef @.str.1, i32 noundef 191, ptr noundef @__func__.btree_xlog_insert)
  br label %64

64:                                               ; preds = %62, %60, %58
  unreachable

65:                                               ; No predecessors!
  br label %66

66:                                               ; preds = %65
  br label %67

67:                                               ; preds = %66, %46
  br label %120

68:                                               ; preds = %39
  call void @llvm.lifetime.start.p0(i64 8, ptr %15) #7
  call void @llvm.lifetime.start.p0(i64 8, ptr %16) #7
  call void @llvm.lifetime.start.p0(i64 8, ptr %17) #7
  call void @llvm.lifetime.start.p0(i64 8, ptr %18) #7
  call void @llvm.lifetime.start.p0(i64 2, ptr %19) #7
  %69 = load ptr, ptr %14, align 8
  %70 = load i16, ptr %69, align 2
  store i16 %70, ptr %19, align 2
  %71 = load ptr, ptr %14, align 8
  %72 = getelementptr inbounds nuw i8, ptr %71, i64 2
  store ptr %72, ptr %14, align 8
  %73 = load i64, ptr %13, align 8
  %74 = sub i64 %73, 2
  store i64 %74, ptr %13, align 8
  %75 = load ptr, ptr %12, align 8
  %76 = load ptr, ptr %10, align 8
  %77 = getelementptr inbounds nuw %struct.xl_btree_insert, ptr %76, i32 0, i32 0
  %78 = load i16, ptr %77, align 2
  %79 = zext i16 %78 to i32
  %80 = add i32 -1, %79
  %81 = trunc i32 %80 to i16
  %82 = call ptr @PageGetItemId(ptr noundef %75, i16 noundef zeroext %81)
  store ptr %82, ptr %15, align 8
  %83 = load ptr, ptr %12, align 8
  %84 = load ptr, ptr %15, align 8
  %85 = call ptr @PageGetItem(ptr noundef %83, ptr noundef %84)
  store ptr %85, ptr %16, align 8
  %86 = load ptr, ptr %14, align 8
  %87 = call ptr @CopyIndexTuple(ptr noundef %86)
  store ptr %87, ptr %17, align 8
  %88 = load ptr, ptr %17, align 8
  %89 = load ptr, ptr %16, align 8
  %90 = load i16, ptr %19, align 2
  %91 = zext i16 %90 to i32
  %92 = call ptr @_bt_swap_posting(ptr noundef %88, ptr noundef %89, i32 noundef %91)
  store ptr %92, ptr %18, align 8
  %93 = load ptr, ptr %16, align 8
  %94 = load ptr, ptr %18, align 8
  %95 = load ptr, ptr %18, align 8
  %96 = call i64 @IndexTupleSize(ptr noundef %95)
  %97 = add i64 %96, 7
  %98 = and i64 %97, -8
  call void @llvm.memcpy.p0.p0.i64(ptr align 2 %93, ptr align 2 %94, i64 %98, i1 false)
  %99 = load ptr, ptr %12, align 8
  %100 = load ptr, ptr %17, align 8
  %101 = load i64, ptr %13, align 8
  %102 = load ptr, ptr %10, align 8
  %103 = getelementptr inbounds nuw %struct.xl_btree_insert, ptr %102, i32 0, i32 0
  %104 = load i16, ptr %103, align 2
  %105 = call zeroext i16 @PageAddItemExtended(ptr noundef %99, ptr noundef %100, i64 noundef %101, i16 noundef zeroext %104, i32 noundef 0)
  %106 = zext i16 %105 to i32
  %107 = icmp eq i32 %106, 0
  br i1 %107, label %108, label %119

108:                                              ; preds = %68
  br label %109

109:                                              ; preds = %108
  br i1 true, label %110, label %112

110:                                              ; preds = %109
  %111 = call zeroext i1 @errstart_cold(i32 noundef 23, ptr noundef null) #8
  br i1 %111, label %114, label %116

112:                                              ; preds = %109
  %113 = call zeroext i1 @errstart(i32 noundef 23, ptr noundef null)
  br i1 %113, label %114, label %116

114:                                              ; preds = %112, %110
  %115 = call i32 (ptr, ...) @errmsg_internal(ptr noundef @.str.4)
  call void @errfinish(ptr noundef @.str.1, i32 noundef 230, ptr noundef @__func__.btree_xlog_insert)
  br label %116

116:                                              ; preds = %114, %112, %110
  unreachable

117:                                              ; No predecessors!
  br label %118

118:                                              ; preds = %117
  br label %119

119:                                              ; preds = %118, %68
  call void @llvm.lifetime.end.p0(i64 2, ptr %19) #7
  call void @llvm.lifetime.end.p0(i64 8, ptr %18) #7
  call void @llvm.lifetime.end.p0(i64 8, ptr %17) #7
  call void @llvm.lifetime.end.p0(i64 8, ptr %16) #7
  call void @llvm.lifetime.end.p0(i64 8, ptr %15) #7
  br label %120

120:                                              ; preds = %119, %67
  %121 = load ptr, ptr %12, align 8
  %122 = load i64, ptr %9, align 8
  call void @PageSetLSN(ptr noundef %121, i64 noundef %122)
  %123 = load i32, ptr %11, align 4
  call void @MarkBufferDirty(i32 noundef %123)
  call void @llvm.lifetime.end.p0(i64 8, ptr %14) #7
  call void @llvm.lifetime.end.p0(i64 8, ptr %13) #7
  br label %124

124:                                              ; preds = %120, %35
  %125 = load i32, ptr %11, align 4
  %126 = call zeroext i1 @BufferIsValid(i32 noundef %125)
  br i1 %126, label %127, label %129

127:                                              ; preds = %124
  %128 = load i32, ptr %11, align 4
  call void @UnlockReleaseBuffer(i32 noundef %128)
  br label %129

129:                                              ; preds = %127, %124
  %130 = load i8, ptr %6, align 1, !range !4, !noundef !5
  %131 = trunc i8 %130 to i1
  br i1 %131, label %132, label %134

132:                                              ; preds = %129
  %133 = load ptr, ptr %8, align 8
  call void @_bt_restore_meta(ptr noundef %133, i8 noundef zeroext 2)
  br label %134

134:                                              ; preds = %132, %129
  call void @llvm.lifetime.end.p0(i64 8, ptr %12) #7
  call void @llvm.lifetime.end.p0(i64 4, ptr %11) #7
  call void @llvm.lifetime.end.p0(i64 8, ptr %10) #7
  call void @llvm.lifetime.end.p0(i64 8, ptr %9) #7
  ret void
}