; Function Attrs: nounwind uwtable
define internal fastcc void @btree_xlog_insert(i1 noundef zeroext %0, i1 noundef zeroext %1, i1 noundef zeroext %2, ptr noundef %3) unnamed_addr #0 {
  %5 = alloca i32, align 4
  %6 = alloca i32, align 4
  %7 = alloca i64, align 8
  %8 = getelementptr inbounds nuw i8, ptr %3, i64 48
  %9 = load i64, ptr %8, align 8
  %10 = getelementptr inbounds nuw i8, ptr %3, i64 104
  %11 = load ptr, ptr %10, align 8
  %12 = getelementptr inbounds nuw i8, ptr %11, i64 72
  %13 = load ptr, ptr %12, align 8
  call void @llvm.lifetime.start.p0(i64 4, ptr nonnull %6) #7
  br i1 %0, label %47, label %14

14:                                               ; preds = %4
  call void @llvm.lifetime.start.p0(i64 4, ptr nonnull %5) #7
  %15 = call i32 @XLogReadBufferForRedo(ptr noundef nonnull %3, i8 noundef zeroext 1, ptr noundef nonnull %5) #7
  %16 = icmp eq i32 %15, 0
  br i1 %16, label %17, label %44

17:                                               ; preds = %14
  %18 = load i32, ptr %5, align 4
  %19 = icmp slt i32 %18, 0
  br i1 %19, label %20, label %26

20:                                               ; preds = %17
  %21 = load ptr, ptr @LocalBufferBlockPointers, align 8
  %22 = xor i32 %18, -1
  %23 = zext nneg i32 %22 to i64
  %24 = getelementptr inbounds nuw ptr, ptr %21, i64 %23
  %25 = load ptr, ptr %24, align 8
  br label %BufferGetPage.exit.i

26:                                               ; preds = %17
  %27 = load ptr, ptr @BufferBlocks, align 8
  %28 = add nsw i32 %18, -1
  %29 = sext i32 %28 to i64
  %30 = shl nsw i64 %29, 13
  %31 = getelementptr inbounds nuw i8, ptr %27, i64 %30
  br label %BufferGetPage.exit.i

BufferGetPage.exit.i:                             ; preds = %26, %20
  %.0.i.i.i = phi ptr [ %25, %20 ], [ %31, %26 ]
  %32 = getelementptr inbounds nuw i8, ptr %.0.i.i.i, i64 16
  %33 = load i16, ptr %32, align 4
  %34 = zext i16 %33 to i64
  %35 = getelementptr inbounds nuw i8, ptr %.0.i.i.i, i64 %34
  %36 = getelementptr inbounds nuw i8, ptr %35, i64 12
  %37 = load i16, ptr %36, align 4
  %38 = and i16 %37, -129
  store i16 %38, ptr %36, align 4
  %39 = lshr i64 %9, 32
  %40 = trunc nuw i64 %39 to i32
  store i32 %40, ptr %.0.i.i.i, align 4
  %41 = trunc i64 %9 to i32
  %42 = getelementptr inbounds nuw i8, ptr %.0.i.i.i, i64 4
  store i32 %41, ptr %42, align 4
  %43 = load i32, ptr %5, align 4
  call void @MarkBufferDirty(i32 noundef %43) #7
  br label %44

44:                                               ; preds = %BufferGetPage.exit.i, %14
  %45 = load i32, ptr %5, align 4
  %.not.i = icmp eq i32 %45, 0
  br i1 %.not.i, label %_bt_clear_incomplete_split.exit, label %46

46:                                               ; preds = %44
  call void @UnlockReleaseBuffer(i32 noundef %45) #7
  br label %_bt_clear_incomplete_split.exit

_bt_clear_incomplete_split.exit:                  ; preds = %44, %46
  call void @llvm.lifetime.end.p0(i64 4, ptr nonnull %5) #7
  br label %47

47:                                               ; preds = %_bt_clear_incomplete_split.exit, %4
  %48 = call i32 @XLogReadBufferForRedo(ptr noundef nonnull %3, i8 noundef zeroext 0, ptr noundef nonnull %6) #7
  %49 = icmp eq i32 %48, 0
  br i1 %49, label %50, label %108

50:                                               ; preds = %47
  call void @llvm.lifetime.start.p0(i64 8, ptr nonnull %7) #7
  %51 = call ptr @XLogRecGetBlockData(ptr noundef nonnull %3, i8 noundef zeroext 0, ptr noundef nonnull %7) #7
  %52 = load i32, ptr %6, align 4
  %53 = icmp slt i32 %52, 0
  br i1 %53, label %54, label %60

54:                                               ; preds = %50
  %55 = load ptr, ptr @LocalBufferBlockPointers, align 8
  %56 = xor i32 %52, -1
  %57 = zext nneg i32 %56 to i64
  %58 = getelementptr inbounds nuw ptr, ptr %55, i64 %57
  %59 = load ptr, ptr %58, align 8
  br label %BufferGetPage.exit

60:                                               ; preds = %50
  %61 = load ptr, ptr @BufferBlocks, align 8
  %62 = add nsw i32 %52, -1
  %63 = sext i32 %62 to i64
  %64 = shl nsw i64 %63, 13
  %65 = getelementptr inbounds nuw i8, ptr %61, i64 %64
  br label %BufferGetPage.exit

BufferGetPage.exit:                               ; preds = %54, %60
  %.0.i.i = phi ptr [ %59, %54 ], [ %65, %60 ]
  br i1 %2, label %74, label %66

66:                                               ; preds = %BufferGetPage.exit
  %67 = load i64, ptr %7, align 8
  %68 = load i16, ptr %13, align 2
  %69 = call zeroext i16 @PageAddItemExtended(ptr noundef %.0.i.i, ptr noundef %51, i64 noundef %67, i16 noundef zeroext %68, i32 noundef 0) #7
  %70 = icmp eq i16 %69, 0
  br i1 %70, label %71, label %102

71:                                               ; preds = %66
  %72 = call zeroext i1 @errstart_cold(i32 noundef 23, ptr noundef null) #8
  call void @llvm.assume(i1 %72)
  %73 = call i32 (ptr, ...) @errmsg_internal(ptr noundef nonnull @.str.3) #7
  call void @errfinish(ptr noundef nonnull @.str.1, i32 noundef 191, ptr noundef nonnull @__func__.btree_xlog_insert) #7
  unreachable

74:                                               ; preds = %BufferGetPage.exit
  %75 = load i16, ptr %51, align 2
  %76 = getelementptr inbounds nuw i8, ptr %51, i64 2
  %77 = load i64, ptr %7, align 8
  %78 = add i64 %77, -2
  store i64 %78, ptr %7, align 8
  %79 = load i16, ptr %13, align 2
  %80 = add i16 %79, -1
  %81 = getelementptr inbounds nuw i8, ptr %.0.i.i, i64 24
  %82 = zext i16 %80 to i64
  %83 = add nsw i64 %82, -1
  %84 = getelementptr inbounds [0 x %struct.ItemIdData], ptr %81, i64 0, i64 %83
  %.val = load i32, ptr %84, align 4
  %85 = and i32 %.val, 32767
  %86 = zext nneg i32 %85 to i64
  %87 = getelementptr inbounds nuw i8, ptr %.0.i.i, i64 %86
  %88 = call ptr @CopyIndexTuple(ptr noundef nonnull %76) #7
  %89 = zext i16 %75 to i32
  %90 = call ptr @_bt_swap_posting(ptr noundef %88, ptr noundef %87, i32 noundef %89) #7
  %91 = getelementptr i8, ptr %90, i64 6
  %.val29 = load i16, ptr %91, align 2
  %92 = and i16 %.val29, 8191
  %narrow = add nuw nsw i16 %92, 7
  %93 = and i16 %narrow, 16376
  %94 = zext nneg i16 %93 to i64
  call void @llvm.memcpy.p0.p0.i64(ptr align 2 %87, ptr align 2 %90, i64 %94, i1 false)
  %95 = load i64, ptr %7, align 8
  %96 = load i16, ptr %13, align 2
  %97 = call zeroext i16 @PageAddItemExtended(ptr noundef %.0.i.i, ptr noundef %88, i64 noundef %95, i16 noundef zeroext %96, i32 noundef 0) #7
  %98 = icmp eq i16 %97, 0
  br i1 %98, label %99, label %102

99:                                               ; preds = %74
  %100 = call zeroext i1 @errstart_cold(i32 noundef 23, ptr noundef null) #8
  call void @llvm.assume(i1 %100)
  %101 = call i32 (ptr, ...) @errmsg_internal(ptr noundef nonnull @.str.4) #7
  call void @errfinish(ptr noundef nonnull @.str.1, i32 noundef 230, ptr noundef nonnull @__func__.btree_xlog_insert) #7
  unreachable

102:                                              ; preds = %74, %66
  %103 = lshr i64 %9, 32
  %104 = trunc nuw i64 %103 to i32
  store i32 %104, ptr %.0.i.i, align 4
  %105 = trunc i64 %9 to i32
  %106 = getelementptr inbounds nuw i8, ptr %.0.i.i, i64 4
  store i32 %105, ptr %106, align 4
  %107 = load i32, ptr %6, align 4
  call void @MarkBufferDirty(i32 noundef %107) #7
  call void @llvm.lifetime.end.p0(i64 8, ptr nonnull %7) #7
  br label %108

108:                                              ; preds = %102, %47
  %109 = load i32, ptr %6, align 4
  %.not = icmp eq i32 %109, 0
  br i1 %.not, label %111, label %110

110:                                              ; preds = %108
  call void @UnlockReleaseBuffer(i32 noundef %109) #7
  br label %111

111:                                              ; preds = %110, %108
  br i1 %1, label %112, label %113

112:                                              ; preds = %111
  call fastcc void @_bt_restore_meta(ptr noundef nonnull %3, i8 noundef zeroext 2)
  br label %113

113:                                              ; preds = %112, %111
  call void @llvm.lifetime.end.p0(i64 4, ptr nonnull %6) #7
  ret void
}